target datalayout = "e-m:e-p270:32:32-p271:32:32-p272:64:64-i64:64-i128:128-f80:128-n8:16:32:64-S128"
target triple = "x86_64-pc-linux-gnu"

%"class.icu_77::SimpleLocaleKeyFactory" = type <{ %"class.icu_77::LocaleKeyFactory.base", [4 x i8], ptr, %"class.icu_77::UnicodeString", i32, [4 x i8] }>
%"class.icu_77::LocaleKeyFactory.base" = type <{ %"class.icu_77::ICUServiceFactory", %"class.icu_77::UnicodeString", i32 }>
%"class.icu_77::ICUServiceFactory" = type { %"class.icu_77::UObject" }
%"class.icu_77::UObject" = type { ptr }
%"class.icu_77::UnicodeString" = type { %"class.icu_77::Replaceable", %"union.icu_77::UnicodeString::StackBufferOrFields" }
%"class.icu_77::Replaceable" = type { %"class.icu_77::UObject" }
%"union.icu_77::UnicodeString::StackBufferOrFields" = type { %struct.anon.0, [32 x i8] }
%struct.anon.0 = type { i16, i32, i32, ptr }
%struct.anon = type { i16, [27 x i16] }

@_ZTVN6icu_777UObjectE = available_externally unnamed_addr constant { [5 x ptr] } { [5 x ptr] [ptr null, ptr @_ZTIN6icu_777UObjectE, ptr @_ZN6icu_777UObjectD1Ev, ptr @_ZN6icu_777UObjectD0Ev, ptr @_ZNK6icu_777UObject17getDynamicClassIDEv] }, align 8

; Function Attrs: inlinehint mustprogress nounwind uwtable
define linkonce_odr noundef ptr @_ZNK6icu_7713UnicodeString13getArrayStartEv(ptr noundef nonnull align 8 dereferenceable(64) %0) #2 comdat align 2 {
  %2 = alloca ptr, align 8
  store ptr %0, ptr %2, align 8, !tbaa !27
  %3 = load ptr, ptr %2, align 8
  %4 = getelementptr inbounds nuw %"class.icu_77::UnicodeString", ptr %3, i32 0, i32 1
  %5 = getelementptr inbounds nuw %struct.anon.0, ptr %4, i32 0, i32 0
  %6 = load i16, ptr %5, align 8, !tbaa !41
  %7 = sext i16 %6 to i32
  %8 = and i32 %7, 2
  %9 = icmp ne i32 %8, 0
  br i1 %9, label %10, label %14

10:                                               ; preds = %1
  %11 = getelementptr inbounds nuw %"class.icu_77::UnicodeString", ptr %3, i32 0, i32 1
  %12 = getelementptr inbounds nuw %struct.anon, ptr %11, i32 0, i32 1
  %13 = getelementptr inbounds [27 x i16], ptr %12, i64 0, i64 0
  br label %18

14:                                               ; preds = %1
  %15 = getelementptr inbounds nuw %"class.icu_77::UnicodeString", ptr %3, i32 0, i32 1
  %16 = getelementptr inbounds nuw %struct.anon.0, ptr %15, i32 0, i32 3
  %17 = load ptr, ptr %16, align 8, !tbaa !41
  br label %18

18:                                               ; preds = %14, %10
  %19 = phi ptr [ %13, %10 ], [ %17, %14 ]
  ret ptr %19
}

; Function Attrs: inlinehint mustprogress nounwind uwtable
define linkonce_odr noundef i32 @_ZNK6icu_7713UnicodeString14getShortLengthEv(ptr noundef nonnull align 8 dereferenceable(64) %0) #2 comdat align 2 {
  %2 = alloca ptr, align 8
  store ptr %0, ptr %2, align 8, !tbaa !27
  %3 = load ptr, ptr %2, align 8
  %4 = getelementptr inbounds nuw %"class.icu_77::UnicodeString", ptr %3, i32 0, i32 1
  %5 = getelementptr inbounds nuw %struct.anon.0, ptr %4, i32 0, i32 0
  %6 = load i16, ptr %5, align 8, !tbaa !41
  %7 = sext i16 %6 to i32
  %8 = ashr i32 %7, 5
  ret i32 %8
}

; Function Attrs: inlinehint mustprogress nounwind uwtable
define linkonce_odr noundef signext i8 @_ZNK6icu_7713UnicodeString14hasShortLengthEv(ptr noundef nonnull align 8 dereferenceable(64) %0) #2 comdat align 2 {
  %2 = alloca ptr, align 8
  store ptr %0, ptr %2, align 8, !tbaa !27
  %3 = load ptr, ptr %2, align 8
  %4 = getelementptr inbounds nuw %"class.icu_77::UnicodeString", ptr %3, i32 0, i32 1
  %5 = getelementptr inbounds nuw %struct.anon.0, ptr %4, i32 0, i32 0
  %6 = load i16, ptr %5, align 8, !tbaa !41
  %7 = sext i16 %6 to i32
  %8 = icmp sge i32 %7, 0
  %9 = zext i1 %8 to i8
  ret i8 %9
}

; Function Attrs: inlinehint mustprogress nounwind uwtable
define linkonce_odr void @_ZN6icu_777UObjectC2Ev(ptr noundef nonnull align 8 dereferenceable(8) %0) unnamed_addr #2 comdat align 2 {
  %2 = alloca ptr, align 8
  store ptr %0, ptr %2, align 8, !tbaa !25
  %3 = load ptr, ptr %2, align 8
  store ptr getelementptr inbounds inrange(-16, 24) ({ [5 x ptr] }, ptr @_ZTVN6icu_777UObjectE, i32 0, i32 0, i32 2), ptr %3, align 8, !tbaa !29
  ret void
}

; Function Attrs: inlinehint mustprogress uwtable
define linkonce_odr noundef signext i8 @_ZNK6icu_7713UnicodeString8doEqualsERKS0_i(ptr noundef nonnull align 8 dereferenceable(64) %0, ptr noundef nonnull align 8 dereferenceable(64) %1, i32 noundef %2) #3 comdat align 2 {
  %4 = alloca ptr, align 8
  %5 = alloca ptr, align 8
  %6 = alloca i32, align 4
  store ptr %0, ptr %4, align 8, !tbaa !27
  store ptr %1, ptr %5, align 8, !tbaa !27
  store i32 %2, ptr %6, align 4, !tbaa !14
  %7 = load ptr, ptr %4, align 8
  %8 = load ptr, ptr %5, align 8, !tbaa !27
  %9 = call noundef ptr @_ZNK6icu_7713UnicodeString13getArrayStartEv(ptr noundef nonnull align 8 dereferenceable(64) %8)
  %10 = load i32, ptr %6, align 4, !tbaa !14
  %11 = call noundef signext i8 @_ZNK6icu_7713UnicodeString8doEqualsEPKDsi(ptr noundef nonnull align 8 dereferenceable(64) %7, ptr noundef %9, i32 noundef %10)
  ret i8 %11
}

; Function Attrs: inlinehint mustprogress uwtable
define linkonce_odr noundef i32 @_ZNK6icu_7713UnicodeString6lengthEv(ptr noundef nonnull align 8 dereferenceable(64) %0) #3 comdat align 2 {
  %2 = alloca ptr, align 8
  store ptr %0, ptr %2, align 8, !tbaa !27
  %3 = load ptr, ptr %2, align 8
  %4 = call noundef signext i8 @_ZNK6icu_7713UnicodeString14hasShortLengthEv(ptr noundef nonnull align 8 dereferenceable(64) %3)
  %5 = icmp ne i8 %4, 0
  br i1 %5, label %6, label %8

6:                                                ; preds = %1
  %7 = call noundef i32 @_ZNK6icu_7713UnicodeString14getShortLengthEv(ptr noundef nonnull align 8 dereferenceable(64) %3)
  br label %12

8:                                                ; preds = %1
  %9 = getelementptr inbounds nuw %"class.icu_77::UnicodeString", ptr %3, i32 0, i32 1
  %10 = getelementptr inbounds nuw %struct.anon.0, ptr %9, i32 0, i32 1
  %11 = load i32, ptr %10, align 4, !tbaa !41
  br label %12

12:                                               ; preds = %8, %6
  %13 = phi i32 [ %7, %6 ], [ %11, %8 ]
  ret i32 %13
}

; Function Attrs: inlinehint mustprogress nounwind uwtable
define linkonce_odr noundef signext i8 @_ZNK6icu_7713UnicodeString7isBogusEv(ptr noundef nonnull align 8 dereferenceable(64) %0) #2 comdat align 2 {
  %2 = alloca ptr, align 8
  store ptr %0, ptr %2, align 8, !tbaa !27
  %3 = load ptr, ptr %2, align 8
  %4 = getelementptr inbounds nuw %"class.icu_77::UnicodeString", ptr %3, i32 0, i32 1
  %5 = getelementptr inbounds nuw %struct.anon.0, ptr %4, i32 0, i32 0
  %6 = load i16, ptr %5, align 8, !tbaa !41
  %7 = sext i16 %6 to i32
  %8 = and i32 %7, 1
  %9 = trunc i32 %8 to i8
  ret i8 %9
}

; Function Attrs: inlinehint mustprogress nounwind uwtable
define linkonce_odr void @_ZN6icu_7711ReplaceableC2Ev(ptr noundef nonnull align 8 dereferenceable(8) %0) unnamed_addr #2 comdat align 2 {
  %2 = alloca ptr, align 8
  store ptr %0, ptr %2, align 8, !tbaa !57
  %3 = load ptr, ptr %2, align 8
  call void @_ZN6icu_777UObjectC2Ev(ptr noundef nonnull align 8 dereferenceable(8) %3) #10
  store ptr getelementptr inbounds inrange(-16, 88) ({ [13 x ptr] }, ptr @_ZTVN6icu_7711ReplaceableE, i32 0, i32 0, i32 2), ptr %3, align 8, !tbaa !29
  ret void
}

; Function Attrs: inlinehint mustprogress uwtable
define linkonce_odr noundef zeroext i1 @_ZNK6icu_7713UnicodeStringeqERKS0_(ptr noundef nonnull align 8 dereferenceable(64) %0, ptr noundef nonnull align 8 dereferenceable(64) %1) #3 comdat align 2 {
  %3 = alloca i1, align 1
  %4 = alloca ptr, align 8
  %5 = alloca ptr, align 8
  %6 = alloca i32, align 4
  %7 = alloca i32, align 4
  store ptr %0, ptr %4, align 8, !tbaa !27
  store ptr %1, ptr %5, align 8, !tbaa !27
  %8 = load ptr, ptr %4, align 8
  %9 = call noundef signext i8 @_ZNK6icu_7713UnicodeString7isBogusEv(ptr noundef nonnull align 8 dereferenceable(64) %8)
  %10 = icmp ne i8 %9, 0
  br i1 %10, label %11, label %15

11:                                               ; preds = %2
  %12 = load ptr, ptr %5, align 8, !tbaa !27
  %13 = call noundef signext i8 @_ZNK6icu_7713UnicodeString7isBogusEv(ptr noundef nonnull align 8 dereferenceable(64) %12)
  %14 = icmp ne i8 %13, 0
  store i1 %14, ptr %3, align 1
  br label %33

15:                                               ; preds = %2
  call void @llvm.lifetime.start.p0(i64 4, ptr %6) #10
  %16 = call noundef i32 @_ZNK6icu_7713UnicodeString6lengthEv(ptr noundef nonnull align 8 dereferenceable(64) %8)
  store i32 %16, ptr %6, align 4, !tbaa !14
  call void @llvm.lifetime.start.p0(i64 4, ptr %7) #10
  %17 = load ptr, ptr %5, align 8, !tbaa !27
  %18 = call noundef i32 @_ZNK6icu_7713UnicodeString6lengthEv(ptr noundef nonnull align 8 dereferenceable(64) %17)
  store i32 %18, ptr %7, align 4, !tbaa !14
  %19 = load ptr, ptr %5, align 8, !tbaa !27
  %20 = call noundef signext i8 @_ZNK6icu_7713UnicodeString7isBogusEv(ptr noundef nonnull align 8 dereferenceable(64) %19)
  %21 = icmp ne i8 %20, 0
  br i1 %21, label %31, label %22

22:                                               ; preds = %15
  %23 = load i32, ptr %6, align 4, !tbaa !14
  %24 = load i32, ptr %7, align 4, !tbaa !14
  %25 = icmp eq i32 %23, %24
  br i1 %25, label %26, label %31

26:                                               ; preds = %22
  %27 = load ptr, ptr %5, align 8, !tbaa !27
  %28 = load i32, ptr %6, align 4, !tbaa !14
  %29 = call noundef signext i8 @_ZNK6icu_7713UnicodeString8doEqualsERKS0_i(ptr noundef nonnull align 8 dereferenceable(64) %8, ptr noundef nonnull align 8 dereferenceable(64) %27, i32 noundef %28)
  %30 = icmp ne i8 %29, 0
  br label %31

31:                                               ; preds = %26, %22, %15
  %32 = phi i1 [ false, %22 ], [ false, %15 ], [ %30, %26 ]
  store i1 %32, ptr %3, align 1
  call void @llvm.lifetime.end.p0(i64 4, ptr %7) #10
  call void @llvm.lifetime.end.p0(i64 4, ptr %6) #10
  br label %33

33:                                               ; preds = %31, %11
  %34 = load i1, ptr %3, align 1
  ret i1 %34
}

; Function Attrs: inlinehint mustprogress uwtable
define linkonce_odr void @_ZN6icu_7713UnicodeStringC2Ev(ptr noundef nonnull align 8 dereferenceable(64) %0) unnamed_addr #3 comdat align 2 {
  %2 = alloca ptr, align 8
  store ptr %0, ptr %2, align 8, !tbaa !27
  %3 = load ptr, ptr %2, align 8
  call void @_ZN6icu_7711ReplaceableC2Ev(ptr noundef nonnull align 8 dereferenceable(8) %3)
  store ptr getelementptr inbounds inrange(-16, 88) ({ [13 x ptr] }, ptr @_ZTVN6icu_7713UnicodeStringE, i32 0, i32 0, i32 2), ptr %3, align 8, !tbaa !29
  %4 = getelementptr inbounds nuw %"class.icu_77::UnicodeString", ptr %3, i32 0, i32 1
  %5 = getelementptr inbounds nuw %struct.anon, ptr %4, i32 0, i32 0
  store i16 2, ptr %5, align 8, !tbaa !41
  ret void
}

; Function Attrs: inlinehint mustprogress nounwind uwtable
define internal noundef signext i8 @_ZL9U_SUCCESS10UErrorCode(i32 noundef %0) #2 {
  %2 = alloca i32, align 4
  store i32 %0, ptr %2, align 4, !tbaa !15
  %3 = load i32, ptr %2, align 4, !tbaa !15
  %4 = icmp sle i32 %3, 0
  %5 = zext i1 %4 to i8
  ret i8 %5
}

; Function Attrs: mustprogress uwtable
define noundef ptr @_ZNK6icu_7722SimpleLocaleKeyFactory6createERKNS_13ICUServiceKeyEPKNS_10ICUServiceER10UErrorCode(ptr noundef nonnull align 8 dereferenceable(156) %0, ptr noundef nonnull align 8 dereferenceable(72) %1, ptr noundef %2, ptr noundef nonnull align 4 dereferenceable(4) %3) unnamed_addr #1 align 2 personality ptr @__gxx_personality_v0 {
  %5 = alloca ptr, align 8
  %6 = alloca ptr, align 8
  %7 = alloca ptr, align 8
  %8 = alloca ptr, align 8
  %9 = alloca ptr, align 8
  %10 = alloca ptr, align 8
  %11 = alloca %"class.icu_77::UnicodeString", align 8
  %12 = alloca ptr, align 8
  %13 = alloca i32, align 4
  %14 = alloca i32, align 4
  store ptr %0, ptr %6, align 8, !tbaa !23
  store ptr %1, ptr %7, align 8, !tbaa !42
  store ptr %2, ptr %8, align 8, !tbaa !44
  store ptr %3, ptr %9, align 8, !tbaa !22
  %15 = load ptr, ptr %6, align 8
  %16 = load ptr, ptr %9, align 8, !tbaa !22
  %17 = load i32, ptr %16, align 4, !tbaa !15
  %18 = call noundef signext i8 @_ZL9U_SUCCESS10UErrorCode(i32 noundef %17)
  %19 = icmp ne i8 %18, 0
  br i1 %19, label %20, label %65

20:                                               ; preds = %4
  call void @llvm.lifetime.start.p0(i64 8, ptr %10) #10
  %21 = load ptr, ptr %7, align 8, !tbaa !42
  store ptr %21, ptr %10, align 8, !tbaa !46
  %22 = getelementptr inbounds nuw %"class.icu_77::SimpleLocaleKeyFactory", ptr %15, i32 0, i32 4
  %23 = load i32, ptr %22, align 8, !tbaa !38
  %24 = icmp eq i32 %23, -1
  br i1 %24, label %34, label %25

25:                                               ; preds = %20
  %26 = getelementptr inbounds nuw %"class.icu_77::SimpleLocaleKeyFactory", ptr %15, i32 0, i32 4
  %27 = load i32, ptr %26, align 8, !tbaa !38
  %28 = load ptr, ptr %10, align 8, !tbaa !46
  %29 = load ptr, ptr %28, align 8, !tbaa !29
  %30 = getelementptr inbounds ptr, ptr %29, i64 10
  %31 = load ptr, ptr %30, align 8
  %32 = call noundef i32 %31(ptr noundef nonnull align 8 dereferenceable(272) %28)
  %33 = icmp eq i32 %27, %32
  br i1 %33, label %34, label %61

34:                                               ; preds = %25, %20
  call void @llvm.lifetime.start.p0(i64 64, ptr %11) #10
  call void @_ZN6icu_7713UnicodeStringC2Ev(ptr noundef nonnull align 8 dereferenceable(64) %11)
  %35 = load ptr, ptr %10, align 8, !tbaa !46
  %36 = load ptr, ptr %35, align 8, !tbaa !29
  %37 = getelementptr inbounds ptr, ptr %36, i64 5
  %38 = load ptr, ptr %37, align 8
  %39 = invoke noundef nonnull align 8 dereferenceable(64) ptr %38(ptr noundef nonnull align 8 dereferenceable(272) %35, ptr noundef nonnull align 8 dereferenceable(64) %11)
          to label %40 unwind label %53

40:                                               ; preds = %34
  %41 = getelementptr inbounds nuw %"class.icu_77::SimpleLocaleKeyFactory", ptr %15, i32 0, i32 3
  %42 = invoke noundef zeroext i1 @_ZNK6icu_7713UnicodeStringeqERKS0_(ptr noundef nonnull align 8 dereferenceable(64) %41, ptr noundef nonnull align 8 dereferenceable(64) %11)
          to label %43 unwind label %53

43:                                               ; preds = %40
  br i1 %42, label %44, label %57

44:                                               ; preds = %43
  %45 = load ptr, ptr %8, align 8, !tbaa !44
  %46 = getelementptr inbounds nuw %"class.icu_77::SimpleLocaleKeyFactory", ptr %15, i32 0, i32 2
  %47 = load ptr, ptr %46, align 8, !tbaa !31
  %48 = load ptr, ptr %45, align 8, !tbaa !29
  %49 = getelementptr inbounds ptr, ptr %48, i64 14
  %50 = load ptr, ptr %49, align 8
  %51 = invoke noundef ptr %50(ptr noundef nonnull align 8 dereferenceable(120) %45, ptr noundef %47)
          to label %52 unwind label %53

52:                                               ; preds = %44
  store ptr %51, ptr %5, align 8
  store i32 1, ptr %14, align 4
  br label %58

53:                                               ; preds = %44, %40, %34
  %54 = landingpad { ptr, i32 }
          cleanup
  %55 = extractvalue { ptr, i32 } %54, 0
  store ptr %55, ptr %12, align 8
  %56 = extractvalue { ptr, i32 } %54, 1
  store i32 %56, ptr %13, align 4
  call void @_ZN6icu_7713UnicodeStringD1Ev(ptr noundef nonnull align 8 dereferenceable(64) %11) #10
  call void @llvm.lifetime.end.p0(i64 64, ptr %11) #10
  call void @llvm.lifetime.end.p0(i64 8, ptr %10) #10
  br label %68

57:                                               ; preds = %43
  store i32 0, ptr %14, align 4
  br label %58

58:                                               ; preds = %57, %52
  call void @_ZN6icu_7713UnicodeStringD1Ev(ptr noundef nonnull align 8 dereferenceable(64) %11) #10
  call void @llvm.lifetime.end.p0(i64 64, ptr %11) #10
  %59 = load i32, ptr %14, align 4
  switch i32 %59, label %62 [
    i32 0, label %60
  ]

60:                                               ; preds = %58
  br label %61

61:                                               ; preds = %60, %25
  store i32 0, ptr %14, align 4
  br label %62

62:                                               ; preds = %61, %58
  call void @llvm.lifetime.end.p0(i64 8, ptr %10) #10
  %63 = load i32, ptr %14, align 4
  switch i32 %63, label %73 [
    i32 0, label %64
    i32 1, label %66
  ]

64:                                               ; preds = %62
  br label %65

65:                                               ; preds = %64, %4
  store ptr null, ptr %5, align 8
  br label %66

66:                                               ; preds = %65, %62
  %67 = load ptr, ptr %5, align 8
  ret ptr %67

68:                                               ; preds = %53
  %69 = load ptr, ptr %12, align 8
  %70 = load i32, ptr %13, align 4
  %71 = insertvalue { ptr, i32 } poison, ptr %69, 0
  %72 = insertvalue { ptr, i32 } %71, i32 %70, 1
  resume { ptr, i32 } %72

73:                                               ; preds = %62
  unreachable
}