; Function Attrs: mustprogress uwtable
define noundef ptr @_ZNK6icu_7722SimpleLocaleKeyFactory6createERKNS_13ICUServiceKeyEPKNS_10ICUServiceER10UErrorCode(ptr noundef nonnull align 8 dereferenceable(156) %0, ptr noundef nonnull align 8 dereferenceable(72) %1, ptr noundef %2, ptr noundef nonnull readonly align 4 captures(none) dereferenceable(4) %3) unnamed_addr #1 align 2 personality ptr @__gxx_personality_v0 {
  %5 = alloca %"class.icu_77::UnicodeString", align 8
  %6 = load i32, ptr %3, align 4, !tbaa !13
  %7 = icmp sgt i32 %6, 0
  br i1 %7, label %.thread, label %8

8:                                                ; preds = %4
  %9 = getelementptr inbounds nuw i8, ptr %0, i64 152
  %10 = load i32, ptr %9, align 8, !tbaa !25
  %11 = icmp eq i32 %10, -1
  br i1 %11, label %18, label %12

12:                                               ; preds = %8
  %13 = load ptr, ptr %1, align 8, !tbaa !15
  %14 = getelementptr inbounds nuw i8, ptr %13, i64 80
  %15 = load ptr, ptr %14, align 8
  %16 = tail call noundef i32 %15(ptr noundef nonnull align 8 dereferenceable(272) %1)
  %17 = icmp eq i32 %10, %16
  br i1 %17, label %18, label %.thread

18:                                               ; preds = %12, %8
  call void @llvm.lifetime.start.p0(i64 64, ptr nonnull %5) #13
  store ptr getelementptr inbounds nuw inrange(-16, 88) (i8, ptr @_ZTVN6icu_7713UnicodeStringE, i64 16), ptr %5, align 8, !tbaa !15
  %19 = getelementptr inbounds nuw i8, ptr %5, i64 8
  store i16 2, ptr %19, align 8, !tbaa !26
  %20 = load ptr, ptr %1, align 8, !tbaa !15
  %21 = getelementptr inbounds nuw i8, ptr %20, i64 40
  %22 = load ptr, ptr %21, align 8
  %23 = invoke noundef nonnull align 8 dereferenceable(64) ptr %22(ptr noundef nonnull align 8 dereferenceable(272) %1, ptr noundef nonnull align 8 dereferenceable(64) %5)
          to label %24 unwind label %62

24:                                               ; preds = %18
  %25 = getelementptr inbounds nuw i8, ptr %0, i64 88
  %26 = getelementptr inbounds nuw i8, ptr %0, i64 96
  %27 = load i16, ptr %26, align 8, !tbaa !26
  %28 = and i16 %27, 1
  %.not.i = icmp eq i16 %28, 0
  br i1 %.not.i, label %32, label %29

29:                                               ; preds = %24
  %30 = load i16, ptr %19, align 8, !tbaa !26
  %31 = and i16 %30, 1
  %.not = icmp eq i16 %31, 0
  br i1 %.not, label %.thread.sink.split, label %55

32:                                               ; preds = %24
  %33 = icmp slt i16 %27, 0
  %34 = ashr i16 %27, 5
  %35 = sext i16 %34 to i32
  %36 = getelementptr inbounds nuw i8, ptr %0, i64 100
  %37 = load i32, ptr %36, align 4
  %38 = select i1 %33, i32 %37, i32 %35
  %39 = load i16, ptr %19, align 8, !tbaa !26
  %40 = icmp slt i16 %39, 0
  %41 = ashr i16 %39, 5
  %42 = sext i16 %41 to i32
  %43 = getelementptr inbounds nuw i8, ptr %5, i64 12
  %44 = load i32, ptr %43, align 4
  %45 = select i1 %40, i32 %44, i32 %42
  %46 = and i16 %39, 1
  %.not9.i = icmp eq i16 %46, 0
  %47 = icmp eq i32 %38, %45
  %or.cond.i = and i1 %.not9.i, %47
  br i1 %or.cond.i, label %48, label %.thread.sink.split

48:                                               ; preds = %32
  %49 = and i16 %39, 2
  %.not.i.i.i = icmp eq i16 %49, 0
  %50 = getelementptr inbounds nuw i8, ptr %5, i64 10
  %51 = getelementptr inbounds nuw i8, ptr %5, i64 24
  %52 = load ptr, ptr %51, align 8
  %53 = select i1 %.not.i.i.i, ptr %52, ptr %50
  %54 = invoke noundef signext i8 @_ZNK6icu_7713UnicodeString8doEqualsEPKDsi(ptr noundef nonnull align 8 dereferenceable(64) %25, ptr noundef %53, i32 noundef %38)
          to label %_ZNK6icu_7713UnicodeStringeqERKS0_.exit unwind label %62

_ZNK6icu_7713UnicodeStringeqERKS0_.exit:          ; preds = %48
  %.not23 = icmp eq i8 %54, 0
  br i1 %.not23, label %.thread.sink.split, label %55

55:                                               ; preds = %29, %_ZNK6icu_7713UnicodeStringeqERKS0_.exit
  %56 = getelementptr inbounds nuw i8, ptr %0, i64 80
  %57 = load ptr, ptr %56, align 8, !tbaa !17
  %58 = load ptr, ptr %2, align 8, !tbaa !15
  %59 = getelementptr inbounds nuw i8, ptr %58, i64 112
  %60 = load ptr, ptr %59, align 8
  %61 = invoke noundef ptr %60(ptr noundef nonnull align 8 dereferenceable(120) %2, ptr noundef %57)
          to label %.thread.sink.split unwind label %62

62:                                               ; preds = %48, %55, %18
  %63 = landingpad { ptr, i32 }
          cleanup
  call void @_ZN6icu_7713UnicodeStringD1Ev(ptr noundef nonnull align 8 dereferenceable(64) %5) #13
  call void @llvm.lifetime.end.p0(i64 64, ptr nonnull %5) #13
  resume { ptr, i32 } %63

.thread.sink.split:                               ; preds = %55, %32, %29, %_ZNK6icu_7713UnicodeStringeqERKS0_.exit
  %.3.ph = phi ptr [ null, %_ZNK6icu_7713UnicodeStringeqERKS0_.exit ], [ null, %29 ], [ null, %32 ], [ %61, %55 ]
  call void @_ZN6icu_7713UnicodeStringD1Ev(ptr noundef nonnull align 8 dereferenceable(64) %5) #13
  call void @llvm.lifetime.end.p0(i64 64, ptr nonnull %5) #13
  br label %.thread

.thread:                                          ; preds = %.thread.sink.split, %12, %4
  %.3 = phi ptr [ null, %4 ], [ null, %12 ], [ %.3.ph, %.thread.sink.split ]
  ret ptr %.3
}